; Function Attrs: mustprogress nounwind uwtable
define dso_local { ptr, i64 } @_ZN5clang8comments4Sema28correctTypoInTParamReferenceEN4llvm9StringRefEPKNS_21TemplateParameterListE(ptr nocapture noundef nonnull readnone align 8 dereferenceable(168) %0, ptr %1, i64 %2, ptr nocapture noundef readonly %3) local_unnamed_addr #0 align 2 {
  %5 = alloca %"class.clang::comments::(anonymous namespace)::SimpleTypoCorrector", align 8
  store ptr null, ptr %5, align 8
  %6 = getelementptr inbounds nuw i8, ptr %5, i64 8
  store ptr %1, ptr %6, align 8
  %.sroa.2.0..sroa_idx.i = getelementptr inbounds i8, ptr %5, i64 16
  store i64 %2, ptr %.sroa.2.0..sroa_idx.i, align 8
  %7 = getelementptr inbounds nuw i8, ptr %5, i64 24
  %8 = add i64 %2, 2
  %9 = udiv i64 %8, 3
  %10 = trunc i64 %9 to i32
  store i32 %10, ptr %7, align 8
  %11 = getelementptr inbounds nuw i8, ptr %5, i64 28
  %12 = add i32 %10, 1
  store i32 %12, ptr %11, align 4
  %13 = getelementptr inbounds nuw i8, ptr %5, i64 32
  store i32 0, ptr %13, align 8
  %14 = getelementptr inbounds nuw i8, ptr %5, i64 36
  store i32 0, ptr %14, align 4
  call fastcc void @_ZN5clang8comments12_GLOBAL__N_134CorrectTypoInTParamReferenceHelperEPKNS_21TemplateParameterListERNS1_19SimpleTypoCorrectorE(ptr noundef %3, ptr noundef nonnull align 8 dereferenceable(40) %5)
  %15 = load i32, ptr %11, align 4
  %16 = load i32, ptr %7, align 8
  %17 = icmp ugt i32 %15, %16
  %18 = load ptr, ptr %5, align 8
  %.not8 = icmp eq ptr %18, null
  %.not = select i1 %17, i1 true, i1 %.not8
  br i1 %.not, label %31, label %19

19:                                               ; preds = %4
  %20 = getelementptr inbounds nuw i8, ptr %18, i64 40
  %21 = load i64, ptr %20, align 8
  %22 = and i64 %21, 7
  %23 = icmp eq i64 %22, 0
  %24 = and i64 %21, -8
  %25 = inttoptr i64 %24 to ptr
  %.0.i.i = select i1 %23, ptr %25, ptr null
  %26 = getelementptr inbounds nuw i8, ptr %.0.i.i, i64 16
  %27 = load ptr, ptr %26, align 8
  %28 = getelementptr inbounds i8, ptr %27, i64 16
  %29 = load i64, ptr %27, align 8
  %30 = and i64 %29, 4294967295
  br label %31

31:                                               ; preds = %4, %19
  %.sroa.0.0 = phi ptr [ %28, %19 ], [ null, %4 ]
  %.sroa.4.0 = phi i64 [ %30, %19 ], [ 0, %4 ]
  %.fca.0.insert = insertvalue { ptr, i64 } poison, ptr %.sroa.0.0, 0
  %.fca.1.insert = insertvalue { ptr, i64 } %.fca.0.insert, i64 %.sroa.4.0, 1
  ret { ptr, i64 } %.fca.1.insert
}